target datalayout = "e-m:e-p270:32:32-p271:32:32-p272:64:64-i64:64-i128:128-f80:128-n8:16:32:64-S128"
target triple = "x86_64-pc-linux-gnu"

%struct.stbi__write_context = type { ptr, ptr, [64 x i8], i32 }
%struct.__va_list_tag = type { i32, i32, ptr, ptr }

; Function Attrs: nounwind uwtable
define void @stbiw__writefv(ptr noundef %0, ptr noundef %1, ptr noundef %2) #0 {
  %4 = alloca ptr, align 8
  %5 = alloca ptr, align 8
  %6 = alloca ptr, align 8
  %7 = alloca i8, align 1
  %8 = alloca i32, align 4
  %9 = alloca [2 x i8], align 1
  %10 = alloca i32, align 4
  %11 = alloca [4 x i8], align 1
  store ptr %0, ptr %4, align 8, !tbaa !7
  store ptr %1, ptr %5, align 8, !tbaa !12
  store ptr %2, ptr %6, align 8, !tbaa !16
  br label %12

12:                                               ; preds = %123, %3
  %13 = load ptr, ptr %5, align 8, !tbaa !12
  %14 = load i8, ptr %13, align 1, !tbaa !18
  %15 = icmp ne i8 %14, 0
  br i1 %15, label %16, label %124

16:                                               ; preds = %12
  %17 = load ptr, ptr %5, align 8, !tbaa !12
  %18 = getelementptr inbounds nuw i8, ptr %17, i32 1
  store ptr %18, ptr %5, align 8, !tbaa !12
  %19 = load i8, ptr %17, align 1, !tbaa !18
  %20 = sext i8 %19 to i32
  switch i32 %20, label %122 [
    i32 32, label %123
    i32 49, label %21
    i32 50, label %46
    i32 52, label %79
  ]

21:                                               ; preds = %16
  call void @llvm.lifetime.start.p0(i64 1, ptr %7) #11
  %22 = load ptr, ptr %6, align 8, !tbaa !16
  %23 = getelementptr inbounds nuw %struct.__va_list_tag, ptr %22, i32 0, i32 0
  %24 = load i32, ptr %23, align 8
  %25 = icmp ule i32 %24, 40
  br i1 %25, label %26, label %31

26:                                               ; preds = %21
  %27 = getelementptr inbounds nuw %struct.__va_list_tag, ptr %22, i32 0, i32 3
  %28 = load ptr, ptr %27, align 8
  %29 = getelementptr i8, ptr %28, i32 %24
  %30 = add i32 %24, 8
  store i32 %30, ptr %23, align 8
  br label %35

31:                                               ; preds = %21
  %32 = getelementptr inbounds nuw %struct.__va_list_tag, ptr %22, i32 0, i32 2
  %33 = load ptr, ptr %32, align 8
  %34 = getelementptr i8, ptr %33, i32 8
  store ptr %34, ptr %32, align 8
  br label %35

35:                                               ; preds = %31, %26
  %36 = phi ptr [ %29, %26 ], [ %33, %31 ]
  %37 = load i32, ptr %36, align 4, !tbaa !3
  %38 = and i32 %37, 255
  %39 = trunc i32 %38 to i8
  store i8 %39, ptr %7, align 1, !tbaa !18
  %40 = load ptr, ptr %4, align 8, !tbaa !7
  %41 = getelementptr inbounds nuw %struct.stbi__write_context, ptr %40, i32 0, i32 0
  %42 = load ptr, ptr %41, align 8, !tbaa !9
  %43 = load ptr, ptr %4, align 8, !tbaa !7
  %44 = getelementptr inbounds nuw %struct.stbi__write_context, ptr %43, i32 0, i32 1
  %45 = load ptr, ptr %44, align 8, !tbaa !11
  call void %42(ptr noundef %45, ptr noundef %7, i32 noundef 1)
  call void @llvm.lifetime.end.p0(i64 1, ptr %7) #11
  br label %123

46:                                               ; preds = %16
  call void @llvm.lifetime.start.p0(i64 4, ptr %8) #11
  %47 = load ptr, ptr %6, align 8, !tbaa !16
  %48 = getelementptr inbounds nuw %struct.__va_list_tag, ptr %47, i32 0, i32 0
  %49 = load i32, ptr %48, align 8
  %50 = icmp ule i32 %49, 40
  br i1 %50, label %51, label %56

51:                                               ; preds = %46
  %52 = getelementptr inbounds nuw %struct.__va_list_tag, ptr %47, i32 0, i32 3
  %53 = load ptr, ptr %52, align 8
  %54 = getelementptr i8, ptr %53, i32 %49
  %55 = add i32 %49, 8
  store i32 %55, ptr %48, align 8
  br label %60

56:                                               ; preds = %46
  %57 = getelementptr inbounds nuw %struct.__va_list_tag, ptr %47, i32 0, i32 2
  %58 = load ptr, ptr %57, align 8
  %59 = getelementptr i8, ptr %58, i32 8
  store ptr %59, ptr %57, align 8
  br label %60

60:                                               ; preds = %56, %51
  %61 = phi ptr [ %54, %51 ], [ %58, %56 ]
  %62 = load i32, ptr %61, align 4, !tbaa !3
  store i32 %62, ptr %8, align 4, !tbaa !3
  call void @llvm.lifetime.start.p0(i64 2, ptr %9) #11
  %63 = load i32, ptr %8, align 4, !tbaa !3
  %64 = and i32 %63, 255
  %65 = trunc i32 %64 to i8
  %66 = getelementptr inbounds [2 x i8], ptr %9, i64 0, i64 0
  store i8 %65, ptr %66, align 1, !tbaa !18
  %67 = load i32, ptr %8, align 4, !tbaa !3
  %68 = ashr i32 %67, 8
  %69 = and i32 %68, 255
  %70 = trunc i32 %69 to i8
  %71 = getelementptr inbounds [2 x i8], ptr %9, i64 0, i64 1
  store i8 %70, ptr %71, align 1, !tbaa !18
  %72 = load ptr, ptr %4, align 8, !tbaa !7
  %73 = getelementptr inbounds nuw %struct.stbi__write_context, ptr %72, i32 0, i32 0
  %74 = load ptr, ptr %73, align 8, !tbaa !9
  %75 = load ptr, ptr %4, align 8, !tbaa !7
  %76 = getelementptr inbounds nuw %struct.stbi__write_context, ptr %75, i32 0, i32 1
  %77 = load ptr, ptr %76, align 8, !tbaa !11
  %78 = getelementptr inbounds [2 x i8], ptr %9, i64 0, i64 0
  call void %74(ptr noundef %77, ptr noundef %78, i32 noundef 2)
  call void @llvm.lifetime.end.p0(i64 2, ptr %9) #11
  call void @llvm.lifetime.end.p0(i64 4, ptr %8) #11
  br label %123

79:                                               ; preds = %16
  call void @llvm.lifetime.start.p0(i64 4, ptr %10) #11
  %80 = load ptr, ptr %6, align 8, !tbaa !16
  %81 = getelementptr inbounds nuw %struct.__va_list_tag, ptr %80, i32 0, i32 0
  %82 = load i32, ptr %81, align 8
  %83 = icmp ule i32 %82, 40
  br i1 %83, label %84, label %89

84:                                               ; preds = %79
  %85 = getelementptr inbounds nuw %struct.__va_list_tag, ptr %80, i32 0, i32 3
  %86 = load ptr, ptr %85, align 8
  %87 = getelementptr i8, ptr %86, i32 %82
  %88 = add i32 %82, 8
  store i32 %88, ptr %81, align 8
  br label %93

89:                                               ; preds = %79
  %90 = getelementptr inbounds nuw %struct.__va_list_tag, ptr %80, i32 0, i32 2
  %91 = load ptr, ptr %90, align 8
  %92 = getelementptr i8, ptr %91, i32 8
  store ptr %92, ptr %90, align 8
  br label %93

93:                                               ; preds = %89, %84
  %94 = phi ptr [ %87, %84 ], [ %91, %89 ]
  %95 = load i32, ptr %94, align 4, !tbaa !3
  store i32 %95, ptr %10, align 4, !tbaa !3
  call void @llvm.lifetime.start.p0(i64 4, ptr %11) #11
  %96 = load i32, ptr %10, align 4, !tbaa !3
  %97 = and i32 %96, 255
  %98 = trunc i32 %97 to i8
  %99 = getelementptr inbounds [4 x i8], ptr %11, i64 0, i64 0
  store i8 %98, ptr %99, align 1, !tbaa !18
  %100 = load i32, ptr %10, align 4, !tbaa !3
  %101 = lshr i32 %100, 8
  %102 = and i32 %101, 255
  %103 = trunc i32 %102 to i8
  %104 = getelementptr inbounds [4 x i8], ptr %11, i64 0, i64 1
  store i8 %103, ptr %104, align 1, !tbaa !18
  %105 = load i32, ptr %10, align 4, !tbaa !3
  %106 = lshr i32 %105, 16
  %107 = and i32 %106, 255
  %108 = trunc i32 %107 to i8
  %109 = getelementptr inbounds [4 x i8], ptr %11, i64 0, i64 2
  store i8 %108, ptr %109, align 1, !tbaa !18
  %110 = load i32, ptr %10, align 4, !tbaa !3
  %111 = lshr i32 %110, 24
  %112 = and i32 %111, 255
  %113 = trunc i32 %112 to i8
  %114 = getelementptr inbounds [4 x i8], ptr %11, i64 0, i64 3
  store i8 %113, ptr %114, align 1, !tbaa !18
  %115 = load ptr, ptr %4, align 8, !tbaa !7
  %116 = getelementptr inbounds nuw %struct.stbi__write_context, ptr %115, i32 0, i32 0
  %117 = load ptr, ptr %116, align 8, !tbaa !9
  %118 = load ptr, ptr %4, align 8, !tbaa !7
  %119 = getelementptr inbounds nuw %struct.stbi__write_context, ptr %118, i32 0, i32 1
  %120 = load ptr, ptr %119, align 8, !tbaa !11
  %121 = getelementptr inbounds [4 x i8], ptr %11, i64 0, i64 0
  call void %117(ptr noundef %120, ptr noundef %121, i32 noundef 4)
  call void @llvm.lifetime.end.p0(i64 4, ptr %11) #11
  call void @llvm.lifetime.end.p0(i64 4, ptr %10) #11
  br label %123

122:                                              ; preds = %16
  br label %124

123:                                              ; preds = %93, %60, %35, %16
  br label %12, !llvm.loop !19

124:                                              ; preds = %122, %12
  ret void
}